target datalayout = "e-m:e-p270:32:32-p271:32:32-p272:64:64-i64:64-i128:128-f80:128-n8:16:32:64-S128"
target triple = "x86_64-pc-linux-gnu"

%struct.jpeg_compress_struct = type { ptr, ptr, ptr, ptr, i32, i32, ptr, i32, i32, i32, i32, double, i32, i32, i32, ptr, [4 x ptr], [4 x ptr], [4 x ptr], [16 x i8], [16 x i8], [16 x i8], i32, ptr, i32, i32, i32, i32, i32, i32, i32, i32, i32, i8, i8, i8, i16, i16, i32, i32, i32, i32, i32, i32, i32, [4 x ptr], i32, i32, i32, [10 x i32], i32, i32, i32, i32, ptr, ptr, ptr, ptr, ptr, ptr, ptr, ptr, ptr, ptr, i32 }
%struct.jpeg_error_mgr = type { ptr, ptr, ptr, ptr, ptr, i32, %union.anon, i32, i64, ptr, i32, ptr, i32, i32 }
%union.anon = type { [8 x i32], [48 x i8] }
%struct.jpeg_memory_mgr = type { ptr, ptr, ptr, ptr, ptr, ptr, ptr, ptr, ptr, ptr, ptr, i64, i64 }
%struct.my_prep_controller = type { %struct.jpeg_c_prep_controller, [10 x ptr], i32, i32, i32, i32 }
%struct.jpeg_c_prep_controller = type { ptr, ptr }
%struct.jpeg_downsampler = type { ptr, ptr, i32 }
%struct.jpeg_component_info = type { i32, i32, i32, i32, i32, i32, i32, i32, i32, i32, i32, i32, i32, i32, i32, i32, i32, i32, i32, ptr, ptr }

; Function Attrs: nounwind uwtable
define internal void @create_context_buffer(ptr noundef %0) #0 {
  %2 = alloca ptr, align 8
  %3 = alloca ptr, align 8
  %4 = alloca i32, align 4
  %5 = alloca i32, align 4
  %6 = alloca i32, align 4
  %7 = alloca ptr, align 8
  %8 = alloca ptr, align 8
  %9 = alloca ptr, align 8
  store ptr %0, ptr %2, align 8
  %10 = load ptr, ptr %2, align 8
  %11 = getelementptr inbounds %struct.jpeg_compress_struct, ptr %10, i32 0, i32 56
  %12 = load ptr, ptr %11, align 8
  store ptr %12, ptr %3, align 8
  %13 = load ptr, ptr %2, align 8
  %14 = getelementptr inbounds %struct.jpeg_compress_struct, ptr %13, i32 0, i32 42
  %15 = load i32, ptr %14, align 4
  store i32 %15, ptr %4, align 4
  %16 = load ptr, ptr %2, align 8
  %17 = getelementptr inbounds %struct.jpeg_compress_struct, ptr %16, i32 0, i32 1
  %18 = load ptr, ptr %17, align 8
  %19 = getelementptr inbounds %struct.jpeg_memory_mgr, ptr %18, i32 0, i32 0
  %20 = load ptr, ptr %19, align 8
  %21 = load ptr, ptr %2, align 8
  %22 = load ptr, ptr %2, align 8
  %23 = getelementptr inbounds %struct.jpeg_compress_struct, ptr %22, i32 0, i32 13
  %24 = load i32, ptr %23, align 4
  %25 = mul nsw i32 %24, 5
  %26 = load i32, ptr %4, align 4
  %27 = mul nsw i32 %25, %26
  %28 = sext i32 %27 to i64
  %29 = mul i64 %28, 8
  %30 = call ptr %20(ptr noundef %21, i32 noundef 1, i64 noundef %29)
  store ptr %30, ptr %9, align 8
  store i32 0, ptr %5, align 4
  %31 = load ptr, ptr %2, align 8
  %32 = getelementptr inbounds %struct.jpeg_compress_struct, ptr %31, i32 0, i32 15
  %33 = load ptr, ptr %32, align 8
  store ptr %33, ptr %7, align 8
  br label %34

34:                                               ; preds = %122, %1
  %35 = load i32, ptr %5, align 4
  %36 = load ptr, ptr %2, align 8
  %37 = getelementptr inbounds %struct.jpeg_compress_struct, ptr %36, i32 0, i32 13
  %38 = load i32, ptr %37, align 4
  %39 = icmp slt i32 %35, %38
  br i1 %39, label %40, label %127

40:                                               ; preds = %34
  %41 = load ptr, ptr %2, align 8
  %42 = getelementptr inbounds %struct.jpeg_compress_struct, ptr %41, i32 0, i32 1
  %43 = load ptr, ptr %42, align 8
  %44 = getelementptr inbounds %struct.jpeg_memory_mgr, ptr %43, i32 0, i32 2
  %45 = load ptr, ptr %44, align 8
  %46 = load ptr, ptr %2, align 8
  %47 = load ptr, ptr %7, align 8
  %48 = getelementptr inbounds %struct.jpeg_component_info, ptr %47, i32 0, i32 7
  %49 = load i32, ptr %48, align 4
  %50 = zext i32 %49 to i64
  %51 = mul nsw i64 %50, 8
  %52 = load ptr, ptr %2, align 8
  %53 = getelementptr inbounds %struct.jpeg_compress_struct, ptr %52, i32 0, i32 41
  %54 = load i32, ptr %53, align 8
  %55 = sext i32 %54 to i64
  %56 = mul nsw i64 %51, %55
  %57 = load ptr, ptr %7, align 8
  %58 = getelementptr inbounds %struct.jpeg_component_info, ptr %57, i32 0, i32 2
  %59 = load i32, ptr %58, align 8
  %60 = sext i32 %59 to i64
  %61 = sdiv i64 %56, %60
  %62 = trunc i64 %61 to i32
  %63 = load i32, ptr %4, align 4
  %64 = mul nsw i32 3, %63
  %65 = call ptr %45(ptr noundef %46, i32 noundef 1, i32 noundef %62, i32 noundef %64)
  store ptr %65, ptr %8, align 8
  %66 = load ptr, ptr %9, align 8
  %67 = load i32, ptr %4, align 4
  %68 = sext i32 %67 to i64
  %69 = getelementptr inbounds ptr, ptr %66, i64 %68
  %70 = load ptr, ptr %8, align 8
  %71 = load i32, ptr %4, align 4
  %72 = mul nsw i32 3, %71
  %73 = sext i32 %72 to i64
  %74 = mul i64 %73, 8
  call void @llvm.memcpy.p0.p0.i64(ptr align 1 %69, ptr align 1 %70, i64 %74, i1 false)
  store i32 0, ptr %6, align 4
  br label %75

75:                                               ; preds = %104, %40
  %76 = load i32, ptr %6, align 4
  %77 = load i32, ptr %4, align 4
  %78 = icmp slt i32 %76, %77
  br i1 %78, label %79, label %107

79:                                               ; preds = %75
  %80 = load ptr, ptr %8, align 8
  %81 = load i32, ptr %4, align 4
  %82 = mul nsw i32 2, %81
  %83 = load i32, ptr %6, align 4
  %84 = add nsw i32 %82, %83
  %85 = sext i32 %84 to i64
  %86 = getelementptr inbounds ptr, ptr %80, i64 %85
  %87 = load ptr, ptr %86, align 8
  %88 = load ptr, ptr %9, align 8
  %89 = load i32, ptr %6, align 4
  %90 = sext i32 %89 to i64
  %91 = getelementptr inbounds ptr, ptr %88, i64 %90
  store ptr %87, ptr %91, align 8
  %92 = load ptr, ptr %8, align 8
  %93 = load i32, ptr %6, align 4
  %94 = sext i32 %93 to i64
  %95 = getelementptr inbounds ptr, ptr %92, i64 %94
  %96 = load ptr, ptr %95, align 8
  %97 = load ptr, ptr %9, align 8
  %98 = load i32, ptr %4, align 4
  %99 = mul nsw i32 4, %98
  %100 = load i32, ptr %6, align 4
  %101 = add nsw i32 %99, %100
  %102 = sext i32 %101 to i64
  %103 = getelementptr inbounds ptr, ptr %97, i64 %102
  store ptr %96, ptr %103, align 8
  br label %104

104:                                              ; preds = %79
  %105 = load i32, ptr %6, align 4
  %106 = add nsw i32 %105, 1
  store i32 %106, ptr %6, align 4
  br label %75, !llvm.loop !12

107:                                              ; preds = %75
  %108 = load ptr, ptr %9, align 8
  %109 = load i32, ptr %4, align 4
  %110 = sext i32 %109 to i64
  %111 = getelementptr inbounds ptr, ptr %108, i64 %110
  %112 = load ptr, ptr %3, align 8
  %113 = getelementptr inbounds %struct.my_prep_controller, ptr %112, i32 0, i32 1
  %114 = load i32, ptr %5, align 4
  %115 = sext i32 %114 to i64
  %116 = getelementptr inbounds [10 x ptr], ptr %113, i64 0, i64 %115
  store ptr %111, ptr %116, align 8
  %117 = load i32, ptr %4, align 4
  %118 = mul nsw i32 5, %117
  %119 = load ptr, ptr %9, align 8
  %120 = sext i32 %118 to i64
  %121 = getelementptr inbounds ptr, ptr %119, i64 %120
  store ptr %121, ptr %9, align 8
  br label %122

122:                                              ; preds = %107
  %123 = load i32, ptr %5, align 4
  %124 = add nsw i32 %123, 1
  store i32 %124, ptr %5, align 4
  %125 = load ptr, ptr %7, align 8
  %126 = getelementptr inbounds %struct.jpeg_component_info, ptr %125, i32 1
  store ptr %126, ptr %7, align 8
  br label %34, !llvm.loop !13

127:                                              ; preds = %34
  ret void
}

; Function Attrs: nounwind uwtable
define hidden void @jICPrepC(ptr noundef %0, i32 noundef %1) #0 {
  %3 = alloca ptr, align 8
  %4 = alloca i32, align 4
  %5 = alloca ptr, align 8
  %6 = alloca i32, align 4
  %7 = alloca ptr, align 8
  store ptr %0, ptr %3, align 8
  store i32 %1, ptr %4, align 4
  %8 = load i32, ptr %4, align 4
  %9 = icmp ne i32 %8, 0
  br i1 %9, label %10, label %21

10:                                               ; preds = %2
  %11 = load ptr, ptr %3, align 8
  %12 = getelementptr inbounds %struct.jpeg_compress_struct, ptr %11, i32 0, i32 0
  %13 = load ptr, ptr %12, align 8
  %14 = getelementptr inbounds %struct.jpeg_error_mgr, ptr %13, i32 0, i32 5
  store i32 4, ptr %14, align 8
  %15 = load ptr, ptr %3, align 8
  %16 = getelementptr inbounds %struct.jpeg_compress_struct, ptr %15, i32 0, i32 0
  %17 = load ptr, ptr %16, align 8
  %18 = getelementptr inbounds %struct.jpeg_error_mgr, ptr %17, i32 0, i32 0
  %19 = load ptr, ptr %18, align 8
  %20 = load ptr, ptr %3, align 8
  call void %19(ptr noundef %20)
  br label %21

21:                                               ; preds = %10, %2
  %22 = load ptr, ptr %3, align 8
  %23 = getelementptr inbounds %struct.jpeg_compress_struct, ptr %22, i32 0, i32 1
  %24 = load ptr, ptr %23, align 8
  %25 = getelementptr inbounds %struct.jpeg_memory_mgr, ptr %24, i32 0, i32 0
  %26 = load ptr, ptr %25, align 8
  %27 = load ptr, ptr %3, align 8
  %28 = call ptr %26(ptr noundef %27, i32 noundef 1, i64 noundef 112)
  store ptr %28, ptr %5, align 8
  %29 = load ptr, ptr %5, align 8
  %30 = load ptr, ptr %3, align 8
  %31 = getelementptr inbounds %struct.jpeg_compress_struct, ptr %30, i32 0, i32 56
  store ptr %29, ptr %31, align 8
  %32 = load ptr, ptr %5, align 8
  %33 = getelementptr inbounds %struct.my_prep_controller, ptr %32, i32 0, i32 0
  %34 = getelementptr inbounds %struct.jpeg_c_prep_controller, ptr %33, i32 0, i32 0
  store ptr @start_pass_prep, ptr %34, align 8
  %35 = load ptr, ptr %3, align 8
  %36 = getelementptr inbounds %struct.jpeg_compress_struct, ptr %35, i32 0, i32 60
  %37 = load ptr, ptr %36, align 8
  %38 = getelementptr inbounds %struct.jpeg_downsampler, ptr %37, i32 0, i32 2
  %39 = load i32, ptr %38, align 8
  %40 = icmp ne i32 %39, 0
  br i1 %40, label %41, label %46

41:                                               ; preds = %21
  %42 = load ptr, ptr %5, align 8
  %43 = getelementptr inbounds %struct.my_prep_controller, ptr %42, i32 0, i32 0
  %44 = getelementptr inbounds %struct.jpeg_c_prep_controller, ptr %43, i32 0, i32 1
  store ptr @pre_process_context, ptr %44, align 8
  %45 = load ptr, ptr %3, align 8
  call void @create_context_buffer(ptr noundef %45)
  br label %97

46:                                               ; preds = %21
  %47 = load ptr, ptr %5, align 8
  %48 = getelementptr inbounds %struct.my_prep_controller, ptr %47, i32 0, i32 0
  %49 = getelementptr inbounds %struct.jpeg_c_prep_controller, ptr %48, i32 0, i32 1
  store ptr @pre_process_data, ptr %49, align 8
  store i32 0, ptr %6, align 4
  %50 = load ptr, ptr %3, align 8
  %51 = getelementptr inbounds %struct.jpeg_compress_struct, ptr %50, i32 0, i32 15
  %52 = load ptr, ptr %51, align 8
  store ptr %52, ptr %7, align 8
  br label %53

53:                                               ; preds = %91, %46
  %54 = load i32, ptr %6, align 4
  %55 = load ptr, ptr %3, align 8
  %56 = getelementptr inbounds %struct.jpeg_compress_struct, ptr %55, i32 0, i32 13
  %57 = load i32, ptr %56, align 4
  %58 = icmp slt i32 %54, %57
  br i1 %58, label %59, label %96

59:                                               ; preds = %53
  %60 = load ptr, ptr %3, align 8
  %61 = getelementptr inbounds %struct.jpeg_compress_struct, ptr %60, i32 0, i32 1
  %62 = load ptr, ptr %61, align 8
  %63 = getelementptr inbounds %struct.jpeg_memory_mgr, ptr %62, i32 0, i32 2
  %64 = load ptr, ptr %63, align 8
  %65 = load ptr, ptr %3, align 8
  %66 = load ptr, ptr %7, align 8
  %67 = getelementptr inbounds %struct.jpeg_component_info, ptr %66, i32 0, i32 7
  %68 = load i32, ptr %67, align 4
  %69 = zext i32 %68 to i64
  %70 = mul nsw i64 %69, 8
  %71 = load ptr, ptr %3, align 8
  %72 = getelementptr inbounds %struct.jpeg_compress_struct, ptr %71, i32 0, i32 41
  %73 = load i32, ptr %72, align 8
  %74 = sext i32 %73 to i64
  %75 = mul nsw i64 %70, %74
  %76 = load ptr, ptr %7, align 8
  %77 = getelementptr inbounds %struct.jpeg_component_info, ptr %76, i32 0, i32 2
  %78 = load i32, ptr %77, align 8
  %79 = sext i32 %78 to i64
  %80 = sdiv i64 %75, %79
  %81 = trunc i64 %80 to i32
  %82 = load ptr, ptr %3, align 8
  %83 = getelementptr inbounds %struct.jpeg_compress_struct, ptr %82, i32 0, i32 42
  %84 = load i32, ptr %83, align 4
  %85 = call ptr %64(ptr noundef %65, i32 noundef 1, i32 noundef %81, i32 noundef %84)
  %86 = load ptr, ptr %5, align 8
  %87 = getelementptr inbounds %struct.my_prep_controller, ptr %86, i32 0, i32 1
  %88 = load i32, ptr %6, align 4
  %89 = sext i32 %88 to i64
  %90 = getelementptr inbounds [10 x ptr], ptr %87, i64 0, i64 %89
  store ptr %85, ptr %90, align 8
  br label %91

91:                                               ; preds = %59
  %92 = load i32, ptr %6, align 4
  %93 = add nsw i32 %92, 1
  store i32 %93, ptr %6, align 4
  %94 = load ptr, ptr %7, align 8
  %95 = getelementptr inbounds %struct.jpeg_component_info, ptr %94, i32 1
  store ptr %95, ptr %7, align 8
  br label %53, !llvm.loop !6

96:                                               ; preds = %53
  br label %97

97:                                               ; preds = %96, %41
  ret void
}