; Function Attrs: nounwind uwtable
define hidden void @jICPrepC(ptr noundef %0, i32 noundef %1) local_unnamed_addr #0 {
  %.not = icmp eq i32 %1, 0
  br i1 %.not, label %8, label %3

3:                                                ; preds = %2
  %4 = load ptr, ptr %0, align 8
  %5 = getelementptr inbounds i8, ptr %4, i64 40
  store i32 4, ptr %5, align 8
  %6 = load ptr, ptr %0, align 8
  %7 = load ptr, ptr %6, align 8
  tail call void %7(ptr noundef nonnull %0) #4
  br label %8

8:                                                ; preds = %3, %2
  %9 = getelementptr inbounds i8, ptr %0, i64 8
  %10 = load ptr, ptr %9, align 8
  %11 = load ptr, ptr %10, align 8
  %12 = tail call ptr %11(ptr noundef %0, i32 noundef 1, i64 noundef 112) #4
  %13 = getelementptr inbounds i8, ptr %0, i64 448
  store ptr %12, ptr %13, align 8
  store ptr @start_pass_prep, ptr %12, align 8
  %14 = getelementptr inbounds i8, ptr %0, i64 480
  %15 = load ptr, ptr %14, align 8
  %16 = getelementptr inbounds i8, ptr %15, i64 16
  %17 = load i32, ptr %16, align 8
  %.not26 = icmp eq i32 %17, 0
  %18 = getelementptr inbounds i8, ptr %12, i64 8
  br i1 %.not26, label %101, label %19

19:                                               ; preds = %8
  store ptr @pre_process_context, ptr %18, align 8
  %20 = load ptr, ptr %13, align 8
  %21 = getelementptr inbounds i8, ptr %0, i64 316
  %22 = load i32, ptr %21, align 4
  %.fr50.i = freeze i32 %22
  %23 = load ptr, ptr %9, align 8
  %24 = load ptr, ptr %23, align 8
  %25 = getelementptr inbounds i8, ptr %0, i64 76
  %26 = load i32, ptr %25, align 4
  %27 = mul i32 %.fr50.i, 5
  %28 = mul i32 %26, %27
  %29 = sext i32 %28 to i64
  %30 = shl nsw i64 %29, 3
  %31 = tail call ptr %24(ptr noundef nonnull %0, i32 noundef 1, i64 noundef %30) #4
  %32 = load i32, ptr %25, align 4
  %33 = icmp sgt i32 %32, 0
  br i1 %33, label %.lr.ph48.i, label %create_context_buffer.exit

.lr.ph48.i:                                       ; preds = %19
  %34 = getelementptr inbounds i8, ptr %0, i64 88
  %35 = load ptr, ptr %34, align 8
  %36 = getelementptr inbounds i8, ptr %0, i64 312
  %37 = mul nsw i32 %.fr50.i, 3
  %38 = sext i32 %.fr50.i to i64
  %39 = sext i32 %37 to i64
  %40 = shl nsw i64 %39, 3
  %41 = icmp sgt i32 %.fr50.i, 0
  %42 = getelementptr inbounds i8, ptr %20, i64 16
  %43 = sext i32 %27 to i64
  br i1 %41, label %.lr.ph.us.preheader.i, label %.lr.ph48.split.i

.lr.ph.us.preheader.i:                            ; preds = %.lr.ph48.i
  %44 = shl nsw i32 %.fr50.i, 2
  %45 = shl nuw nsw i32 %.fr50.i, 1
  %46 = zext nneg i32 %45 to i64
  %47 = zext nneg i32 %44 to i64
  %wide.trip.count.i = zext nneg i32 %.fr50.i to i64
  br label %.lr.ph.us.i

.lr.ph.us.i:                                      ; preds = %._crit_edge.us.i, %.lr.ph.us.preheader.i
  %indvars.iv56.i = phi i64 [ 0, %.lr.ph.us.preheader.i ], [ %indvars.iv.next57.i, %._crit_edge.us.i ]
  %.046.us.i = phi ptr [ %31, %.lr.ph.us.preheader.i ], [ %73, %._crit_edge.us.i ]
  %.04044.us.i = phi ptr [ %35, %.lr.ph.us.preheader.i ], [ %74, %._crit_edge.us.i ]
  %48 = load ptr, ptr %9, align 8
  %49 = getelementptr inbounds i8, ptr %48, i64 16
  %50 = load ptr, ptr %49, align 8
  %51 = getelementptr inbounds i8, ptr %.04044.us.i, i64 28
  %52 = load i32, ptr %51, align 4
  %53 = zext i32 %52 to i64
  %54 = shl nuw nsw i64 %53, 3
  %55 = load i32, ptr %36, align 8
  %56 = sext i32 %55 to i64
  %57 = mul nsw i64 %54, %56
  %58 = getelementptr inbounds i8, ptr %.04044.us.i, i64 8
  %59 = load i32, ptr %58, align 8
  %60 = sext i32 %59 to i64
  %61 = sdiv i64 %57, %60
  %62 = trunc i64 %61 to i32
  %63 = tail call ptr %50(ptr noundef nonnull %0, i32 noundef 1, i32 noundef %62, i32 noundef %37) #4
  %64 = getelementptr inbounds ptr, ptr %.046.us.i, i64 %38
  tail call void @llvm.memcpy.p0.p0.i64(ptr nonnull align 1 %64, ptr align 1 %63, i64 %40, i1 false)
  %invariant.gep.i = getelementptr inbounds ptr, ptr %63, i64 %46
  br label %65

65:                                               ; preds = %65, %.lr.ph.us.i
  %indvars.iv53.i = phi i64 [ 0, %.lr.ph.us.i ], [ %indvars.iv.next54.i, %65 ]
  %gep.i = getelementptr inbounds ptr, ptr %invariant.gep.i, i64 %indvars.iv53.i
  %66 = load ptr, ptr %gep.i, align 8
  %67 = getelementptr inbounds ptr, ptr %.046.us.i, i64 %indvars.iv53.i
  store ptr %66, ptr %67, align 8
  %68 = getelementptr inbounds ptr, ptr %63, i64 %indvars.iv53.i
  %69 = load ptr, ptr %68, align 8
  %70 = add nuw nsw i64 %indvars.iv53.i, %47
  %71 = getelementptr inbounds ptr, ptr %.046.us.i, i64 %70
  store ptr %69, ptr %71, align 8
  %indvars.iv.next54.i = add nuw nsw i64 %indvars.iv53.i, 1
  %exitcond.not.i = icmp eq i64 %indvars.iv.next54.i, %wide.trip.count.i
  br i1 %exitcond.not.i, label %._crit_edge.us.i, label %65, !llvm.loop !6

._crit_edge.us.i:                                 ; preds = %65
  %72 = getelementptr inbounds [10 x ptr], ptr %42, i64 0, i64 %indvars.iv56.i
  store ptr %64, ptr %72, align 8
  %73 = getelementptr ptr, ptr %.046.us.i, i64 %43
  %indvars.iv.next57.i = add nuw nsw i64 %indvars.iv56.i, 1
  %74 = getelementptr inbounds i8, ptr %.04044.us.i, i64 96
  %75 = load i32, ptr %25, align 4
  %76 = sext i32 %75 to i64
  %77 = icmp slt i64 %indvars.iv.next57.i, %76
  br i1 %77, label %.lr.ph.us.i, label %create_context_buffer.exit, !llvm.loop !8

.lr.ph48.split.i:                                 ; preds = %.lr.ph48.i, %.lr.ph48.split.i
  %indvars.iv.i = phi i64 [ %indvars.iv.next.i, %.lr.ph48.split.i ], [ 0, %.lr.ph48.i ]
  %.046.i = phi ptr [ %96, %.lr.ph48.split.i ], [ %31, %.lr.ph48.i ]
  %.04044.i = phi ptr [ %97, %.lr.ph48.split.i ], [ %35, %.lr.ph48.i ]
  %78 = load ptr, ptr %9, align 8
  %79 = getelementptr inbounds i8, ptr %78, i64 16
  %80 = load ptr, ptr %79, align 8
  %81 = getelementptr inbounds i8, ptr %.04044.i, i64 28
  %82 = load i32, ptr %81, align 4
  %83 = zext i32 %82 to i64
  %84 = shl nuw nsw i64 %83, 3
  %85 = load i32, ptr %36, align 8
  %86 = sext i32 %85 to i64
  %87 = mul nsw i64 %84, %86
  %88 = getelementptr inbounds i8, ptr %.04044.i, i64 8
  %89 = load i32, ptr %88, align 8
  %90 = sext i32 %89 to i64
  %91 = sdiv i64 %87, %90
  %92 = trunc i64 %91 to i32
  %93 = tail call ptr %80(ptr noundef nonnull %0, i32 noundef 1, i32 noundef %92, i32 noundef %37) #4
  %94 = getelementptr inbounds ptr, ptr %.046.i, i64 %38
  tail call void @llvm.memcpy.p0.p0.i64(ptr align 1 %94, ptr align 1 %93, i64 %40, i1 false)
  %95 = getelementptr inbounds [10 x ptr], ptr %42, i64 0, i64 %indvars.iv.i
  store ptr %94, ptr %95, align 8
  %96 = getelementptr inbounds ptr, ptr %.046.i, i64 %43
  %indvars.iv.next.i = add nuw nsw i64 %indvars.iv.i, 1
  %97 = getelementptr inbounds i8, ptr %.04044.i, i64 96
  %98 = load i32, ptr %25, align 4
  %99 = sext i32 %98 to i64
  %100 = icmp slt i64 %indvars.iv.next.i, %99
  br i1 %100, label %.lr.ph48.split.i, label %create_context_buffer.exit, !llvm.loop !8

101:                                              ; preds = %8
  store ptr @pre_process_data, ptr %18, align 8
  %102 = getelementptr inbounds i8, ptr %0, i64 76
  %103 = load i32, ptr %102, align 4
  %104 = icmp sgt i32 %103, 0
  br i1 %104, label %.lr.ph, label %create_context_buffer.exit

.lr.ph:                                           ; preds = %101
  %105 = getelementptr inbounds i8, ptr %0, i64 88
  %106 = load ptr, ptr %105, align 8
  %107 = getelementptr inbounds i8, ptr %0, i64 312
  %108 = getelementptr inbounds i8, ptr %0, i64 316
  %109 = getelementptr inbounds i8, ptr %12, i64 16
  br label %110

110:                                              ; preds = %.lr.ph, %110
  %indvars.iv = phi i64 [ 0, %.lr.ph ], [ %indvars.iv.next, %110 ]
  %.030 = phi ptr [ %106, %.lr.ph ], [ %129, %110 ]
  %111 = load ptr, ptr %9, align 8
  %112 = getelementptr inbounds i8, ptr %111, i64 16
  %113 = load ptr, ptr %112, align 8
  %114 = getelementptr inbounds i8, ptr %.030, i64 28
  %115 = load i32, ptr %114, align 4
  %116 = zext i32 %115 to i64
  %117 = shl nuw nsw i64 %116, 3
  %118 = load i32, ptr %107, align 8
  %119 = sext i32 %118 to i64
  %120 = mul nsw i64 %117, %119
  %121 = getelementptr inbounds i8, ptr %.030, i64 8
  %122 = load i32, ptr %121, align 8
  %123 = sext i32 %122 to i64
  %124 = sdiv i64 %120, %123
  %125 = trunc i64 %124 to i32
  %126 = load i32, ptr %108, align 4
  %127 = tail call ptr %113(ptr noundef nonnull %0, i32 noundef 1, i32 noundef %125, i32 noundef %126) #4
  %128 = getelementptr inbounds [10 x ptr], ptr %109, i64 0, i64 %indvars.iv
  store ptr %127, ptr %128, align 8
  %indvars.iv.next = add nuw nsw i64 %indvars.iv, 1
  %129 = getelementptr inbounds i8, ptr %.030, i64 96
  %130 = load i32, ptr %102, align 4
  %131 = sext i32 %130 to i64
  %132 = icmp slt i64 %indvars.iv.next, %131
  br i1 %132, label %110, label %create_context_buffer.exit, !llvm.loop !9

create_context_buffer.exit:                       ; preds = %.lr.ph48.split.i, %._crit_edge.us.i, %110, %101, %19
  ret void
}